; ModuleID = '58/664.c'
source_filename = "58/664.c"
target datalayout = "e-m:e-p270:32:32-p271:32:32-p272:64:64-i64:64-f80:128-n8:16:32:64-S128"
target triple = "x86_64-pc-linux-gnu"

@.str = private unnamed_addr constant [3 x i8] c"%d\00", align 1
@.str.1 = private unnamed_addr constant [3 x i8] c"1\0A\00", align 1
@.str.2 = private unnamed_addr constant [3 x i8] c"0\0A\00", align 1
@.str.3 = private unnamed_addr constant [2 x i8] c"\0A\00", align 1

; Function Attrs: noinline nounwind uwtable
define dso_local i32 @main() #0 {
  %1 = alloca i32, align 4
  %2 = alloca [81 x i8], align 16
  %3 = alloca i32, align 4
  %4 = alloca i32, align 4
  %5 = alloca i32, align 4
  %6 = alloca i32, align 4
  %7 = alloca i32, align 4
  %8 = alloca i32, align 4
  store i32 0, i32* %1, align 4
  store i32 1, i32* %6, align 4
  store i32 1, i32* %7, align 4
  %9 = call i32 (i8*, ...) @__isoc99_scanf(i8* getelementptr inbounds ([3 x i8], [3 x i8]* @.str, i64 0, i64 0), i32* %4)
  %10 = call i32 @getchar()
  store i32 0, i32* %3, align 4
  br label %11

11:                                               ; preds = %166, %0
  %12 = load i32, i32* %3, align 4
  %13 = load i32, i32* %4, align 4
  %14 = icmp slt i32 %12, %13
  br i1 %14, label %15, label %169

15:                                               ; preds = %11
  %16 = getelementptr inbounds [81 x i8], [81 x i8]* %2, i64 0, i64 0
  %17 = call i32 (i8*, ...) bitcast (i32 (...)* @gets to i32 (i8*, ...)*)(i8* %16)
  %18 = getelementptr inbounds [81 x i8], [81 x i8]* %2, i64 0, i64 0
  %19 = call i64 @strlen(i8* %18) #3
  %20 = trunc i64 %19 to i32
  store i32 %20, i32* %8, align 4
  %21 = load i32, i32* %8, align 4
  %22 = icmp eq i32 %21, 1
  br i1 %22, label %23, label %53

23:                                               ; preds = %15
  %24 = getelementptr inbounds [81 x i8], [81 x i8]* %2, i64 0, i64 0
  %25 = load i8, i8* %24, align 16
  %26 = sext i8 %25 to i32
  %27 = icmp sge i32 %26, 97
  br i1 %27, label %28, label %33

28:                                               ; preds = %23
  %29 = getelementptr inbounds [81 x i8], [81 x i8]* %2, i64 0, i64 0
  %30 = load i8, i8* %29, align 16
  %31 = sext i8 %30 to i32
  %32 = icmp sle i32 %31, 122
  br i1 %32, label %48, label %33

33:                                               ; preds = %28, %23
  %34 = getelementptr inbounds [81 x i8], [81 x i8]* %2, i64 0, i64 0
  %35 = load i8, i8* %34, align 16
  %36 = sext i8 %35 to i32
  %37 = icmp sge i32 %36, 65
  br i1 %37, label %38, label %43

38:                                               ; preds = %33
  %39 = getelementptr inbounds [81 x i8], [81 x i8]* %2, i64 0, i64 0
  %40 = load i8, i8* %39, align 16
  %41 = sext i8 %40 to i32
  %42 = icmp sle i32 %41, 90
  br i1 %42, label %48, label %43

43:                                               ; preds = %38, %33
  %44 = getelementptr inbounds [81 x i8], [81 x i8]* %2, i64 0, i64 0
  %45 = load i8, i8* %44, align 16
  %46 = sext i8 %45 to i32
  %47 = icmp eq i32 %46, 95
  br i1 %47, label %48, label %50

48:                                               ; preds = %43, %38, %28
  %49 = call i32 (i8*, ...) @printf(i8* getelementptr inbounds ([3 x i8], [3 x i8]* @.str.1, i64 0, i64 0))
  br label %52

50:                                               ; preds = %43
  %51 = call i32 (i8*, ...) @printf(i8* getelementptr inbounds ([3 x i8], [3 x i8]* @.str.2, i64 0, i64 0))
  br label %52

52:                                               ; preds = %50, %48
  br label %165

53:                                               ; preds = %15
  %54 = getelementptr inbounds [81 x i8], [81 x i8]* %2, i64 0, i64 0
  %55 = load i8, i8* %54, align 16
  %56 = sext i8 %55 to i32
  %57 = icmp sge i32 %56, 97
  br i1 %57, label %58, label %63

58:                                               ; preds = %53
  %59 = getelementptr inbounds [81 x i8], [81 x i8]* %2, i64 0, i64 0
  %60 = load i8, i8* %59, align 16
  %61 = sext i8 %60 to i32
  %62 = icmp sle i32 %61, 122
  br i1 %62, label %78, label %63

63:                                               ; preds = %58, %53
  %64 = getelementptr inbounds [81 x i8], [81 x i8]* %2, i64 0, i64 0
  %65 = load i8, i8* %64, align 16
  %66 = sext i8 %65 to i32
  %67 = icmp sge i32 %66, 65
  br i1 %67, label %68, label %73

68:                                               ; preds = %63
  %69 = getelementptr inbounds [81 x i8], [81 x i8]* %2, i64 0, i64 0
  %70 = load i8, i8* %69, align 16
  %71 = sext i8 %70 to i32
  %72 = icmp sle i32 %71, 90
  br i1 %72, label %78, label %73

73:                                               ; preds = %68, %63
  %74 = getelementptr inbounds [81 x i8], [81 x i8]* %2, i64 0, i64 0
  %75 = load i8, i8* %74, align 16
  %76 = sext i8 %75 to i32
  %77 = icmp eq i32 %76, 95
  br i1 %77, label %78, label %79

78:                                               ; preds = %73, %68, %58
  store i32 1, i32* %6, align 4
  br label %80

79:                                               ; preds = %73
  store i32 0, i32* %6, align 4
  br label %80

80:                                               ; preds = %79, %78
  %81 = load i32, i32* %6, align 4
  %82 = icmp eq i32 %81, 1
  br i1 %82, label %83, label %147

83:                                               ; preds = %80
  store i32 1, i32* %5, align 4
  br label %84

84:                                               ; preds = %143, %83
  %85 = load i32, i32* %5, align 4
  %86 = sext i32 %85 to i64
  %87 = getelementptr inbounds [81 x i8], [81 x i8]* %2, i64 0, i64 %86
  %88 = load i8, i8* %87, align 1
  %89 = sext i8 %88 to i32
  %90 = icmp ne i32 %89, 0
  br i1 %90, label %91, label %146

91:                                               ; preds = %84
  %92 = load i32, i32* %5, align 4
  %93 = sext i32 %92 to i64
  %94 = getelementptr inbounds [81 x i8], [81 x i8]* %2, i64 0, i64 %93
  %95 = load i8, i8* %94, align 1
  %96 = sext i8 %95 to i32
  %97 = icmp slt i32 %96, 97
  br i1 %97, label %105, label %98

98:                                               ; preds = %91
  %99 = load i32, i32* %5, align 4
  %100 = sext i32 %99 to i64
  %101 = getelementptr inbounds [81 x i8], [81 x i8]* %2, i64 0, i64 %100
  %102 = load i8, i8* %101, align 1
  %103 = sext i8 %102 to i32
  %104 = icmp sgt i32 %103, 122
  br i1 %104, label %105, label %141

105:                                              ; preds = %98, %91
  %106 = load i32, i32* %5, align 4
  %107 = sext i32 %106 to i64
  %108 = getelementptr inbounds [81 x i8], [81 x i8]* %2, i64 0, i64 %107
  %109 = load i8, i8* %108, align 1
  %110 = sext i8 %109 to i32
  %111 = icmp slt i32 %110, 65
  br i1 %111, label %119, label %112

112:                                              ; preds = %105
  %113 = load i32, i32* %5, align 4
  %114 = sext i32 %113 to i64
  %115 = getelementptr inbounds [81 x i8], [81 x i8]* %2, i64 0, i64 %114
  %116 = load i8, i8* %115, align 1
  %117 = sext i8 %116 to i32
  %118 = icmp sgt i32 %117, 90
  br i1 %118, label %119, label %141

119:                                              ; preds = %112, %105
  %120 = load i32, i32* %5, align 4
  %121 = sext i32 %120 to i64
  %122 = getelementptr inbounds [81 x i8], [81 x i8]* %2, i64 0, i64 %121
  %123 = load i8, i8* %122, align 1
  %124 = sext i8 %123 to i32
  %125 = icmp slt i32 %124, 48
  br i1 %125, label %133, label %126

126:                                              ; preds = %119
  %127 = load i32, i32* %5, align 4
  %128 = sext i32 %127 to i64
  %129 = getelementptr inbounds [81 x i8], [81 x i8]* %2, i64 0, i64 %128
  %130 = load i8, i8* %129, align 1
  %131 = sext i8 %130 to i32
  %132 = icmp sgt i32 %131, 57
  br i1 %132, label %133, label %141

133:                                              ; preds = %126, %119
  %134 = load i32, i32* %5, align 4
  %135 = sext i32 %134 to i64
  %136 = getelementptr inbounds [81 x i8], [81 x i8]* %2, i64 0, i64 %135
  %137 = load i8, i8* %136, align 1
  %138 = sext i8 %137 to i32
  %139 = icmp ne i32 %138, 95
  br i1 %139, label %140, label %141

140:                                              ; preds = %133
  store i32 0, i32* %7, align 4
  br label %146

141:                                              ; preds = %133, %126, %112, %98
  store i32 1, i32* %7, align 4
  br label %142

142:                                              ; preds = %141
  br label %143

143:                                              ; preds = %142
  %144 = load i32, i32* %5, align 4
  %145 = add nsw i32 %144, 1
  store i32 %145, i32* %5, align 4
  br label %84

146:                                              ; preds = %140, %84
  br label %147

147:                                              ; preds = %146, %80
  %148 = load i32, i32* %6, align 4
  %149 = icmp eq i32 %148, 1
  br i1 %149, label %150, label %155

150:                                              ; preds = %147
  %151 = load i32, i32* %7, align 4
  %152 = icmp eq i32 %151, 1
  br i1 %152, label %153, label %155

153:                                              ; preds = %150
  %154 = call i32 (i8*, ...) @printf(i8* getelementptr inbounds ([3 x i8], [3 x i8]* @.str.1, i64 0, i64 0))
  br label %155

155:                                              ; preds = %153, %150, %147
  %156 = load i32, i32* %6, align 4
  %157 = icmp eq i32 %156, 0
  br i1 %157, label %161, label %158

158:                                              ; preds = %155
  %159 = load i32, i32* %7, align 4
  %160 = icmp eq i32 %159, 0
  br i1 %160, label %161, label %163

161:                                              ; preds = %158, %155
  %162 = call i32 (i8*, ...) @printf(i8* getelementptr inbounds ([3 x i8], [3 x i8]* @.str.2, i64 0, i64 0))
  br label %163

163:                                              ; preds = %161, %158
  %164 = call i32 (i8*, ...) @printf(i8* getelementptr inbounds ([2 x i8], [2 x i8]* @.str.3, i64 0, i64 0))
  br label %165

165:                                              ; preds = %163, %52
  br label %166

166:                                              ; preds = %165
  %167 = load i32, i32* %3, align 4
  %168 = add nsw i32 %167, 1
  store i32 %168, i32* %3, align 4
  br label %11

169:                                              ; preds = %11
  %170 = load i32, i32* %1, align 4
  ret i32 %170
}

declare dso_local i32 @__isoc99_scanf(i8*, ...) #1

declare dso_local i32 @getchar() #1

declare dso_local i32 @gets(...) #1

; Function Attrs: nounwind readonly
declare dso_local i64 @strlen(i8*) #2

declare dso_local i32 @printf(i8*, ...) #1


!llvm.module.flags = !{!0}
!llvm.ident = !{!1}

!0 = !{i32 1, !"wchar_size", i32 4}
!1 = !{!"clang version 10.0.0-4ubuntu1 "}
